target datalayout = "e-m:e-p270:32:32-p271:32:32-p272:64:64-i64:64-i128:128-f80:128-n8:16:32:64-S128"
target triple = "x86_64-pc-linux-gnu"

%"class.icu_77::UMutex" = type { [40 x i8], %"struct.std::atomic", ptr }
%"struct.std::atomic" = type { %"struct.std::__atomic_base" }
%"struct.std::__atomic_base" = type { ptr }
%"class.icu_77::UnicodeString" = type { %"class.icu_77::Replaceable", %"union.icu_77::UnicodeString::StackBufferOrFields" }
%"class.icu_77::Replaceable" = type { %"class.icu_77::UObject" }
%"class.icu_77::UObject" = type { ptr }
%"union.icu_77::UnicodeString::StackBufferOrFields" = type { %struct.anon.0, [32 x i8] }
%struct.anon.0 = type { i16, i32, i32, ptr }
%"class.icu_77::DateIntervalFormat" = type <{ %"class.icu_77::Format", ptr, ptr, ptr, ptr, %"class.icu_77::Locale", %"class.icu_77::UnicodeString", [9 x %"struct.icu_77::DateIntervalFormat::PatternInfo"], ptr, ptr, ptr, i32, [4 x i8] }>
%"class.icu_77::Format" = type { %"class.icu_77::UObject", ptr, ptr }
%"class.icu_77::Locale" = type <{ %"class.icu_77::UObject", [12 x i8], [6 x i8], [4 x i8], [2 x i8], i32, [4 x i8], ptr, [157 x i8], [3 x i8], ptr, i8, [7 x i8] }>
%"struct.icu_77::DateIntervalFormat::PatternInfo" = type <{ %"class.icu_77::UnicodeString", %"class.icu_77::UnicodeString", i8, [7 x i8] }>
%"class.icu_77::Mutex" = type { ptr }
%"class.icu_77::FieldPositionOnlyHandler" = type <{ %"class.icu_77::FieldPositionHandler.base", [4 x i8], ptr, i8, i8, [6 x i8] }>
%"class.icu_77::FieldPositionHandler.base" = type <{ ptr, i32 }>
%"class.icu_77::DateInterval" = type { %"class.icu_77::UObject", double, double }

@_ZN6icu_77L15gFormatterMutexE = internal global %"class.icu_77::UMutex" zeroinitializer, align 8

; Function Attrs: inlinehint mustprogress nounwind uwtable
define linkonce_odr noundef double @_ZNK6icu_7712DateInterval9getToDateEv(ptr noundef nonnull align 8 dereferenceable(24) %0) #2 comdat align 2 {
  %2 = alloca ptr, align 8
  store ptr %0, ptr %2, align 8, !tbaa !89
  %3 = load ptr, ptr %2, align 8
  %4 = getelementptr inbounds nuw %"class.icu_77::DateInterval", ptr %3, i32 0, i32 2
  %5 = load double, ptr %4, align 8, !tbaa !116
  ret double %5
}

; Function Attrs: inlinehint mustprogress uwtable
define linkonce_odr void @_ZN6icu_778Calendar7setTimeEdR10UErrorCode(ptr noundef nonnull align 8 dereferenceable(192) %0, double noundef %1, ptr noundef nonnull align 4 dereferenceable(4) %2) #3 comdat align 2 {
  %4 = alloca ptr, align 8
  %5 = alloca double, align 8
  %6 = alloca ptr, align 8
  store ptr %0, ptr %4, align 8, !tbaa !109
  store double %1, ptr %5, align 8, !tbaa !112
  store ptr %2, ptr %6, align 8, !tbaa !22
  %7 = load ptr, ptr %4, align 8
  %8 = load double, ptr %5, align 8, !tbaa !112
  %9 = load ptr, ptr %6, align 8, !tbaa !22
  call void @_ZN6icu_778Calendar15setTimeInMillisEdR10UErrorCode(ptr noundef nonnull align 8 dereferenceable(192) %7, double noundef %8, ptr noundef nonnull align 4 dereferenceable(4) %9)
  ret void
}

; Function Attrs: inlinehint mustprogress nounwind uwtable
define linkonce_odr noundef double @_ZNK6icu_7712DateInterval11getFromDateEv(ptr noundef nonnull align 8 dereferenceable(24) %0) #2 comdat align 2 {
  %2 = alloca ptr, align 8
  store ptr %0, ptr %2, align 8, !tbaa !89
  %3 = load ptr, ptr %2, align 8
  %4 = getelementptr inbounds nuw %"class.icu_77::DateInterval", ptr %3, i32 0, i32 1
  %5 = load double, ptr %4, align 8, !tbaa !114
  ret double %5
}

; Function Attrs: mustprogress nounwind uwtable
define linkonce_odr void @_ZN6icu_775MutexD2Ev(ptr noundef nonnull align 8 dereferenceable(8) %0) unnamed_addr #0 comdat align 2 personality ptr @__gxx_personality_v0 {
  %2 = alloca ptr, align 8
  store ptr %0, ptr %2, align 8, !tbaa !70
  %3 = load ptr, ptr %2, align 8
  %4 = getelementptr inbounds nuw %"class.icu_77::Mutex", ptr %3, i32 0, i32 0
  %5 = load ptr, ptr %4, align 8, !tbaa !74
  invoke void @umtx_unlock_77(ptr noundef %5)
          to label %6 unwind label %7

6:                                                ; preds = %1
  ret void

7:                                                ; preds = %1
  %8 = landingpad { ptr, i32 }
          catch ptr null
  %9 = extractvalue { ptr, i32 } %8, 0
  call void @__clang_call_terminate(ptr %9) #14
  unreachable
}

; Function Attrs: mustprogress uwtable
define noundef nonnull align 8 dereferenceable(64) ptr @_ZNK6icu_7718DateIntervalFormat18formatIntervalImplERKNS_12DateIntervalERNS_13UnicodeStringERaRNS_20FieldPositionHandlerER10UErrorCode(ptr noundef nonnull align 8 dereferenceable(1596) %0, ptr noundef nonnull align 8 dereferenceable(24) %1, ptr noundef nonnull align 8 dereferenceable(64) %2, ptr noundef nonnull align 1 dereferenceable(1) %3, ptr noundef nonnull align 8 dereferenceable(12) %4, ptr noundef nonnull align 4 dereferenceable(4) %5) #1 align 2 {
  %7 = alloca ptr, align 8
  %8 = alloca ptr, align 8
  %9 = alloca ptr, align 8
  %10 = alloca ptr, align 8
  %11 = alloca ptr, align 8
  %12 = alloca ptr, align 8
  %13 = alloca ptr, align 8
  store ptr %0, ptr %8, align 8, !tbaa !39
  store ptr %1, ptr %9, align 8, !tbaa !89
  store ptr %2, ptr %10, align 8, !tbaa !41
  store ptr %3, ptr %11, align 8, !tbaa !17
  store ptr %4, ptr %12, align 8, !tbaa !91
  store ptr %5, ptr %13, align 8, !tbaa !22
  %14 = load ptr, ptr %8, align 8
  %15 = load ptr, ptr %13, align 8, !tbaa !22
  %16 = load i32, ptr %15, align 4, !tbaa !15
  %17 = call noundef signext i8 @_ZL9U_FAILURE10UErrorCode(i32 noundef %16)
  %18 = icmp ne i8 %17, 0
  br i1 %18, label %19, label %21

19:                                               ; preds = %6
  %20 = load ptr, ptr %10, align 8, !tbaa !41
  store ptr %20, ptr %7, align 8
  br label %52

21:                                               ; preds = %6
  %22 = getelementptr inbounds nuw %"class.icu_77::DateIntervalFormat", ptr %14, i32 0, i32 3
  %23 = load ptr, ptr %22, align 8, !tbaa !59
  %24 = icmp eq ptr %23, null
  br i1 %24, label %29, label %25

25:                                               ; preds = %21
  %26 = getelementptr inbounds nuw %"class.icu_77::DateIntervalFormat", ptr %14, i32 0, i32 4
  %27 = load ptr, ptr %26, align 8, !tbaa !60
  %28 = icmp eq ptr %27, null
  br i1 %28, label %29, label %32

29:                                               ; preds = %25, %21
  %30 = load ptr, ptr %13, align 8, !tbaa !22
  store i32 27, ptr %30, align 4, !tbaa !15
  %31 = load ptr, ptr %10, align 8, !tbaa !41
  store ptr %31, ptr %7, align 8
  br label %52

32:                                               ; preds = %25
  %33 = getelementptr inbounds nuw %"class.icu_77::DateIntervalFormat", ptr %14, i32 0, i32 3
  %34 = load ptr, ptr %33, align 8, !tbaa !59
  %35 = load ptr, ptr %9, align 8, !tbaa !89
  %36 = call noundef double @_ZNK6icu_7712DateInterval11getFromDateEv(ptr noundef nonnull align 8 dereferenceable(24) %35)
  %37 = load ptr, ptr %13, align 8, !tbaa !22
  call void @_ZN6icu_778Calendar7setTimeEdR10UErrorCode(ptr noundef nonnull align 8 dereferenceable(192) %34, double noundef %36, ptr noundef nonnull align 4 dereferenceable(4) %37)
  %38 = getelementptr inbounds nuw %"class.icu_77::DateIntervalFormat", ptr %14, i32 0, i32 4
  %39 = load ptr, ptr %38, align 8, !tbaa !60
  %40 = load ptr, ptr %9, align 8, !tbaa !89
  %41 = call noundef double @_ZNK6icu_7712DateInterval9getToDateEv(ptr noundef nonnull align 8 dereferenceable(24) %40)
  %42 = load ptr, ptr %13, align 8, !tbaa !22
  call void @_ZN6icu_778Calendar7setTimeEdR10UErrorCode(ptr noundef nonnull align 8 dereferenceable(192) %39, double noundef %41, ptr noundef nonnull align 4 dereferenceable(4) %42)
  %43 = getelementptr inbounds nuw %"class.icu_77::DateIntervalFormat", ptr %14, i32 0, i32 3
  %44 = load ptr, ptr %43, align 8, !tbaa !59
  %45 = getelementptr inbounds nuw %"class.icu_77::DateIntervalFormat", ptr %14, i32 0, i32 4
  %46 = load ptr, ptr %45, align 8, !tbaa !60
  %47 = load ptr, ptr %10, align 8, !tbaa !41
  %48 = load ptr, ptr %11, align 8, !tbaa !17
  %49 = load ptr, ptr %12, align 8, !tbaa !91
  %50 = load ptr, ptr %13, align 8, !tbaa !22
  %51 = call noundef nonnull align 8 dereferenceable(64) ptr @_ZNK6icu_7718DateIntervalFormat10formatImplERNS_8CalendarES2_RNS_13UnicodeStringERaRNS_20FieldPositionHandlerER10UErrorCode(ptr noundef nonnull align 8 dereferenceable(1596) %14, ptr noundef nonnull align 8 dereferenceable(192) %44, ptr noundef nonnull align 8 dereferenceable(192) %46, ptr noundef nonnull align 8 dereferenceable(64) %47, ptr noundef nonnull align 1 dereferenceable(1) %48, ptr noundef nonnull align 8 dereferenceable(12) %49, ptr noundef nonnull align 4 dereferenceable(4) %50)
  store ptr %51, ptr %7, align 8
  br label %52

52:                                               ; preds = %32, %29, %19
  %53 = load ptr, ptr %7, align 8
  ret ptr %53
}

; Function Attrs: mustprogress uwtable
define linkonce_odr void @_ZN6icu_775MutexC2EPNS_6UMutexE(ptr noundef nonnull align 8 dereferenceable(8) %0, ptr noundef %1) unnamed_addr #1 comdat align 2 {
  %3 = alloca ptr, align 8
  %4 = alloca ptr, align 8
  store ptr %0, ptr %3, align 8, !tbaa !70
  store ptr %1, ptr %4, align 8, !tbaa !72
  %5 = load ptr, ptr %3, align 8
  %6 = getelementptr inbounds nuw %"class.icu_77::Mutex", ptr %5, i32 0, i32 0
  %7 = load ptr, ptr %4, align 8, !tbaa !72
  store ptr %7, ptr %6, align 8, !tbaa !74
  %8 = getelementptr inbounds nuw %"class.icu_77::Mutex", ptr %5, i32 0, i32 0
  %9 = load ptr, ptr %8, align 8, !tbaa !74
  call void @umtx_lock_77(ptr noundef %9)
  ret void
}

; Function Attrs: inlinehint mustprogress nounwind uwtable
define internal noundef signext i8 @_ZL9U_FAILURE10UErrorCode(i32 noundef %0) #2 {
  %2 = alloca i32, align 4
  store i32 %0, ptr %2, align 4, !tbaa !15
  %3 = load i32, ptr %2, align 4, !tbaa !15
  %4 = icmp sgt i32 %3, 0
  %5 = zext i1 %4 to i8
  ret i8 %5
}

; Function Attrs: mustprogress uwtable
define noundef nonnull align 8 dereferenceable(64) ptr @_ZNK6icu_7718DateIntervalFormat6formatEPKNS_12DateIntervalERNS_13UnicodeStringERNS_13FieldPositionER10UErrorCode(ptr noundef nonnull align 8 dereferenceable(1596) %0, ptr noundef %1, ptr noundef nonnull align 8 dereferenceable(64) %2, ptr noundef nonnull align 8 dereferenceable(20) %3, ptr noundef nonnull align 4 dereferenceable(4) %4) #1 align 2 personality ptr @__gxx_personality_v0 {
  %6 = alloca ptr, align 8
  %7 = alloca ptr, align 8
  %8 = alloca ptr, align 8
  %9 = alloca ptr, align 8
  %10 = alloca ptr, align 8
  %11 = alloca ptr, align 8
  %12 = alloca %"class.icu_77::FieldPositionOnlyHandler", align 8
  %13 = alloca ptr, align 8
  %14 = alloca i32, align 4
  %15 = alloca i8, align 1
  %16 = alloca %"class.icu_77::Mutex", align 8
  store ptr %0, ptr %7, align 8, !tbaa !39
  store ptr %1, ptr %8, align 8, !tbaa !89
  store ptr %2, ptr %9, align 8, !tbaa !41
  store ptr %3, ptr %10, align 8, !tbaa !85
  store ptr %4, ptr %11, align 8, !tbaa !22
  %17 = load ptr, ptr %7, align 8
  %18 = load ptr, ptr %11, align 8, !tbaa !22
  %19 = load i32, ptr %18, align 4, !tbaa !15
  %20 = call noundef signext i8 @_ZL9U_FAILURE10UErrorCode(i32 noundef %19)
  %21 = icmp ne i8 %20, 0
  br i1 %21, label %22, label %24

22:                                               ; preds = %5
  %23 = load ptr, ptr %9, align 8, !tbaa !41
  store ptr %23, ptr %6, align 8
  br label %58

24:                                               ; preds = %5
  %25 = getelementptr inbounds nuw %"class.icu_77::DateIntervalFormat", ptr %17, i32 0, i32 2
  %26 = load ptr, ptr %25, align 8, !tbaa !58
  %27 = icmp eq ptr %26, null
  br i1 %27, label %32, label %28

28:                                               ; preds = %24
  %29 = getelementptr inbounds nuw %"class.icu_77::DateIntervalFormat", ptr %17, i32 0, i32 1
  %30 = load ptr, ptr %29, align 8, !tbaa !47
  %31 = icmp eq ptr %30, null
  br i1 %31, label %32, label %35

32:                                               ; preds = %28, %24
  %33 = load ptr, ptr %11, align 8, !tbaa !22
  store i32 27, ptr %33, align 4, !tbaa !15
  %34 = load ptr, ptr %9, align 8, !tbaa !41
  store ptr %34, ptr %6, align 8
  br label %58

35:                                               ; preds = %28
  call void @llvm.lifetime.start.p0(i64 32, ptr %12) #12
  %36 = load ptr, ptr %10, align 8, !tbaa !85
  call void @_ZN6icu_7724FieldPositionOnlyHandlerC1ERNS_13FieldPositionE(ptr noundef nonnull align 8 dereferenceable(26) %12, ptr noundef nonnull align 8 dereferenceable(20) %36)
  invoke void @_ZN6icu_7724FieldPositionOnlyHandler18setAcceptFirstOnlyEa(ptr noundef nonnull align 8 dereferenceable(26) %12, i8 noundef signext 1)
          to label %37 unwind label %44

37:                                               ; preds = %35
  call void @llvm.lifetime.start.p0(i64 1, ptr %15) #12
  call void @llvm.lifetime.start.p0(i64 8, ptr %16) #12
  invoke void @_ZN6icu_775MutexC2EPNS_6UMutexE(ptr noundef nonnull align 8 dereferenceable(8) %16, ptr noundef @_ZN6icu_77L15gFormatterMutexE)
          to label %38 unwind label %48

38:                                               ; preds = %37
  %39 = load ptr, ptr %8, align 8, !tbaa !89
  %40 = load ptr, ptr %9, align 8, !tbaa !41
  %41 = load ptr, ptr %11, align 8, !tbaa !22
  %42 = invoke noundef nonnull align 8 dereferenceable(64) ptr @_ZNK6icu_7718DateIntervalFormat18formatIntervalImplERKNS_12DateIntervalERNS_13UnicodeStringERaRNS_20FieldPositionHandlerER10UErrorCode(ptr noundef nonnull align 8 dereferenceable(1596) %17, ptr noundef nonnull align 8 dereferenceable(24) %39, ptr noundef nonnull align 8 dereferenceable(64) %40, ptr noundef nonnull align 1 dereferenceable(1) %15, ptr noundef nonnull align 8 dereferenceable(12) %12, ptr noundef nonnull align 4 dereferenceable(4) %41)
          to label %43 unwind label %52

43:                                               ; preds = %38
  store ptr %42, ptr %6, align 8
  call void @_ZN6icu_775MutexD2Ev(ptr noundef nonnull align 8 dereferenceable(8) %16) #12
  call void @llvm.lifetime.end.p0(i64 8, ptr %16) #12
  call void @llvm.lifetime.end.p0(i64 1, ptr %15) #12
  call void @_ZN6icu_7724FieldPositionOnlyHandlerD1Ev(ptr noundef nonnull align 8 dereferenceable(26) %12) #12
  call void @llvm.lifetime.end.p0(i64 32, ptr %12) #12
  br label %58

44:                                               ; preds = %35
  %45 = landingpad { ptr, i32 }
          cleanup
  %46 = extractvalue { ptr, i32 } %45, 0
  store ptr %46, ptr %13, align 8
  %47 = extractvalue { ptr, i32 } %45, 1
  store i32 %47, ptr %14, align 4
  br label %57

48:                                               ; preds = %37
  %49 = landingpad { ptr, i32 }
          cleanup
  %50 = extractvalue { ptr, i32 } %49, 0
  store ptr %50, ptr %13, align 8
  %51 = extractvalue { ptr, i32 } %49, 1
  store i32 %51, ptr %14, align 4
  br label %56

52:                                               ; preds = %38
  %53 = landingpad { ptr, i32 }
          cleanup
  %54 = extractvalue { ptr, i32 } %53, 0
  store ptr %54, ptr %13, align 8
  %55 = extractvalue { ptr, i32 } %53, 1
  store i32 %55, ptr %14, align 4
  call void @_ZN6icu_775MutexD2Ev(ptr noundef nonnull align 8 dereferenceable(8) %16) #12
  br label %56

56:                                               ; preds = %52, %48
  call void @llvm.lifetime.end.p0(i64 8, ptr %16) #12
  call void @llvm.lifetime.end.p0(i64 1, ptr %15) #12
  br label %57

57:                                               ; preds = %56, %44
  call void @_ZN6icu_7724FieldPositionOnlyHandlerD1Ev(ptr noundef nonnull align 8 dereferenceable(26) %12) #12
  call void @llvm.lifetime.end.p0(i64 32, ptr %12) #12
  br label %60

58:                                               ; preds = %43, %32, %22
  %59 = load ptr, ptr %6, align 8
  ret ptr %59

60:                                               ; preds = %57
  %61 = load ptr, ptr %13, align 8
  %62 = load i32, ptr %14, align 4
  %63 = insertvalue { ptr, i32 } poison, ptr %61, 0
  %64 = insertvalue { ptr, i32 } %63, i32 %62, 1
  resume { ptr, i32 } %64
}