; Function Attrs: mustprogress uwtable
define noundef nonnull align 8 dereferenceable(64) ptr @_ZNK6icu_7718DateIntervalFormat6formatEPKNS_12DateIntervalERNS_13UnicodeStringERNS_13FieldPositionER10UErrorCode(ptr noundef nonnull align 8 dereferenceable(1596) %0, ptr noundef readonly captures(none) %1, ptr noundef nonnull align 8 dereferenceable(64) %2, ptr noundef nonnull align 8 dereferenceable(20) %3, ptr noundef nonnull align 4 dereferenceable(4) %4) local_unnamed_addr #1 align 2 personality ptr @__gxx_personality_v0 {
  %6 = alloca %"class.icu_77::FieldPositionOnlyHandler", align 8
  %7 = alloca i8, align 1
  %8 = load i32, ptr %4, align 4, !tbaa !13
  %9 = icmp slt i32 %8, 1
  br i1 %9, label %10, label %53

10:                                               ; preds = %5
  %11 = getelementptr inbounds nuw i8, ptr %0, i64 32
  %12 = load ptr, ptr %11, align 8, !tbaa !48
  %13 = icmp eq ptr %12, null
  %14 = getelementptr inbounds nuw i8, ptr %0, i64 24
  %15 = load ptr, ptr %14, align 8
  %16 = icmp eq ptr %15, null
  %or.cond = select i1 %13, i1 true, i1 %16
  br i1 %or.cond, label %17, label %18

17:                                               ; preds = %10
  store i32 27, ptr %4, align 4, !tbaa !13
  br label %53

18:                                               ; preds = %10
  call void @llvm.lifetime.start.p0(i64 32, ptr nonnull %6) #19
  call void @_ZN6icu_7724FieldPositionOnlyHandlerC1ERNS_13FieldPositionE(ptr noundef nonnull align 8 dereferenceable(26) %6, ptr noundef nonnull align 8 dereferenceable(20) %3)
  invoke void @_ZN6icu_7724FieldPositionOnlyHandler18setAcceptFirstOnlyEa(ptr noundef nonnull align 8 dereferenceable(26) %6, i8 noundef signext 1)
          to label %19 unwind label %43

19:                                               ; preds = %18
  call void @llvm.lifetime.start.p0(i64 1, ptr nonnull %7) #19
  invoke void @umtx_lock_77(ptr noundef nonnull @_ZN6icu_77L15gFormatterMutexE)
          to label %_ZN6icu_775MutexC2EPNS_6UMutexE.exit unwind label %45

_ZN6icu_775MutexC2EPNS_6UMutexE.exit:             ; preds = %19
  %20 = load i32, ptr %4, align 4, !tbaa !13
  %21 = icmp slt i32 %20, 1
  br i1 %21, label %22, label %_ZNK6icu_7718DateIntervalFormat18formatIntervalImplERKNS_12DateIntervalERNS_13UnicodeStringERaRNS_20FieldPositionHandlerER10UErrorCode.exit

22:                                               ; preds = %_ZN6icu_775MutexC2EPNS_6UMutexE.exit
  %23 = getelementptr inbounds nuw i8, ptr %0, i64 40
  %24 = load ptr, ptr %23, align 8, !tbaa !50
  %25 = icmp eq ptr %24, null
  br i1 %25, label %30, label %26

26:                                               ; preds = %22
  %27 = getelementptr inbounds nuw i8, ptr %0, i64 48
  %28 = load ptr, ptr %27, align 8, !tbaa !51
  %29 = icmp eq ptr %28, null
  br i1 %29, label %30, label %31

30:                                               ; preds = %26, %22
  store i32 27, ptr %4, align 4, !tbaa !13
  br label %_ZNK6icu_7718DateIntervalFormat18formatIntervalImplERKNS_12DateIntervalERNS_13UnicodeStringERaRNS_20FieldPositionHandlerER10UErrorCode.exit

31:                                               ; preds = %26
  %32 = getelementptr inbounds nuw i8, ptr %1, i64 8
  %33 = load double, ptr %32, align 8, !tbaa !62
  invoke void @_ZN6icu_778Calendar15setTimeInMillisEdR10UErrorCode(ptr noundef nonnull align 8 dereferenceable(192) %24, double noundef %33, ptr noundef nonnull align 4 dereferenceable(4) %4)
          to label %.noexc unwind label %47

.noexc:                                           ; preds = %31
  %34 = load ptr, ptr %27, align 8, !tbaa !51
  %35 = getelementptr inbounds nuw i8, ptr %1, i64 16
  %36 = load double, ptr %35, align 8, !tbaa !65
  invoke void @_ZN6icu_778Calendar15setTimeInMillisEdR10UErrorCode(ptr noundef nonnull align 8 dereferenceable(192) %34, double noundef %36, ptr noundef nonnull align 4 dereferenceable(4) %4)
          to label %.noexc18 unwind label %47

.noexc18:                                         ; preds = %.noexc
  %37 = load ptr, ptr %23, align 8, !tbaa !50
  %38 = load ptr, ptr %27, align 8, !tbaa !51
  %39 = invoke noundef nonnull align 8 dereferenceable(64) ptr @_ZNK6icu_7718DateIntervalFormat10formatImplERNS_8CalendarES2_RNS_13UnicodeStringERaRNS_20FieldPositionHandlerER10UErrorCode(ptr noundef nonnull align 8 dereferenceable(1596) %0, ptr noundef nonnull align 8 dereferenceable(192) %37, ptr noundef nonnull align 8 dereferenceable(192) %38, ptr noundef nonnull align 8 dereferenceable(64) %2, ptr noundef nonnull align 1 dereferenceable(1) %7, ptr noundef nonnull align 8 dereferenceable(12) %6, ptr noundef nonnull align 4 dereferenceable(4) %4)
          to label %_ZNK6icu_7718DateIntervalFormat18formatIntervalImplERKNS_12DateIntervalERNS_13UnicodeStringERaRNS_20FieldPositionHandlerER10UErrorCode.exit unwind label %47

_ZNK6icu_7718DateIntervalFormat18formatIntervalImplERKNS_12DateIntervalERNS_13UnicodeStringERaRNS_20FieldPositionHandlerER10UErrorCode.exit: ; preds = %30, %_ZN6icu_775MutexC2EPNS_6UMutexE.exit, %.noexc18
  %.0.i = phi ptr [ %2, %30 ], [ %2, %_ZN6icu_775MutexC2EPNS_6UMutexE.exit ], [ %39, %.noexc18 ]
  invoke void @umtx_unlock_77(ptr noundef nonnull @_ZN6icu_77L15gFormatterMutexE)
          to label %_ZN6icu_775MutexD2Ev.exit unwind label %40

40:                                               ; preds = %_ZNK6icu_7718DateIntervalFormat18formatIntervalImplERKNS_12DateIntervalERNS_13UnicodeStringERaRNS_20FieldPositionHandlerER10UErrorCode.exit
  %41 = landingpad { ptr, i32 }
          catch ptr null
  %42 = extractvalue { ptr, i32 } %41, 0
  call void @__clang_call_terminate(ptr %42) #21
  unreachable

_ZN6icu_775MutexD2Ev.exit:                        ; preds = %_ZNK6icu_7718DateIntervalFormat18formatIntervalImplERKNS_12DateIntervalERNS_13UnicodeStringERaRNS_20FieldPositionHandlerER10UErrorCode.exit
  call void @llvm.lifetime.end.p0(i64 1, ptr nonnull %7) #19
  call void @_ZN6icu_7724FieldPositionOnlyHandlerD1Ev(ptr noundef nonnull align 8 dereferenceable(26) %6) #19
  call void @llvm.lifetime.end.p0(i64 32, ptr nonnull %6) #19
  br label %53

43:                                               ; preds = %18
  %44 = landingpad { ptr, i32 }
          cleanup
  br label %52

45:                                               ; preds = %19
  %46 = landingpad { ptr, i32 }
          cleanup
  br label %_ZN6icu_775MutexD2Ev.exit20

47:                                               ; preds = %.noexc18, %.noexc, %31
  %48 = landingpad { ptr, i32 }
          cleanup
  invoke void @umtx_unlock_77(ptr noundef nonnull @_ZN6icu_77L15gFormatterMutexE)
          to label %_ZN6icu_775MutexD2Ev.exit20 unwind label %49

49:                                               ; preds = %47
  %50 = landingpad { ptr, i32 }
          catch ptr null
  %51 = extractvalue { ptr, i32 } %50, 0
  call void @__clang_call_terminate(ptr %51) #21
  unreachable

_ZN6icu_775MutexD2Ev.exit20:                      ; preds = %47, %45
  %.pn = phi { ptr, i32 } [ %46, %45 ], [ %48, %47 ]
  call void @llvm.lifetime.end.p0(i64 1, ptr nonnull %7) #19
  br label %52

52:                                               ; preds = %_ZN6icu_775MutexD2Ev.exit20, %43
  %.pn.pn = phi { ptr, i32 } [ %.pn, %_ZN6icu_775MutexD2Ev.exit20 ], [ %44, %43 ]
  call void @_ZN6icu_7724FieldPositionOnlyHandlerD1Ev(ptr noundef nonnull align 8 dereferenceable(26) %6) #19
  call void @llvm.lifetime.end.p0(i64 32, ptr nonnull %6) #19
  resume { ptr, i32 } %.pn.pn

53:                                               ; preds = %5, %_ZN6icu_775MutexD2Ev.exit, %17
  %.013 = phi ptr [ %2, %17 ], [ %.0.i, %_ZN6icu_775MutexD2Ev.exit ], [ %2, %5 ]
  ret ptr %.013
}